; Function Attrs: mustprogress uwtable
define void @_ZN6marisa6Keyset5clearEv(ptr nocapture noundef nonnull align 8 dereferenceable(104) %0) local_unnamed_addr #2 align 2 personality ptr @__gxx_personality_v0 {
  %2 = alloca %"class.marisa::Keyset", align 8
  call void @_ZN6marisa6KeysetC1Ev(ptr noundef nonnull align 8 dereferenceable(104) %2)
  %3 = load ptr, ptr %2, align 8
  %4 = load ptr, ptr %0, align 8
  store ptr %4, ptr %2, align 8
  store ptr %3, ptr %0, align 8
  %5 = getelementptr inbounds i8, ptr %2, i64 8
  %6 = getelementptr inbounds i8, ptr %0, i64 8
  %7 = load <2 x i64>, ptr %6, align 8
  %8 = load <2 x i64>, ptr %5, align 8
  store <2 x i64> %7, ptr %5, align 8
  store <2 x i64> %8, ptr %6, align 8
  %9 = getelementptr inbounds i8, ptr %2, i64 24
  %10 = getelementptr inbounds i8, ptr %0, i64 24
  %11 = load ptr, ptr %9, align 8
  %12 = load ptr, ptr %10, align 8
  store ptr %12, ptr %9, align 8
  store ptr %11, ptr %10, align 8
  %13 = getelementptr inbounds i8, ptr %2, i64 32
  %14 = getelementptr inbounds i8, ptr %0, i64 32
  %15 = load <2 x i64>, ptr %14, align 8
  %16 = load <2 x i64>, ptr %13, align 8
  store <2 x i64> %15, ptr %13, align 8
  store <2 x i64> %16, ptr %14, align 8
  %17 = getelementptr inbounds i8, ptr %2, i64 48
  %18 = getelementptr inbounds i8, ptr %0, i64 48
  %19 = load ptr, ptr %17, align 8
  %20 = load ptr, ptr %18, align 8
  store ptr %20, ptr %17, align 8
  store ptr %19, ptr %18, align 8
  %21 = getelementptr inbounds i8, ptr %2, i64 56
  %22 = getelementptr inbounds i8, ptr %0, i64 56
  %23 = load <2 x i64>, ptr %22, align 8
  %24 = load <2 x i64>, ptr %21, align 8
  store <2 x i64> %23, ptr %21, align 8
  store <2 x i64> %24, ptr %22, align 8
  %25 = getelementptr inbounds i8, ptr %2, i64 72
  %26 = getelementptr inbounds i8, ptr %0, i64 72
  %27 = load ptr, ptr %25, align 8
  %28 = load ptr, ptr %26, align 8
  store ptr %28, ptr %25, align 8
  store ptr %27, ptr %26, align 8
  %29 = getelementptr inbounds i8, ptr %2, i64 80
  %30 = getelementptr inbounds i8, ptr %0, i64 80
  %31 = load <2 x i64>, ptr %30, align 8
  %32 = load <2 x i64>, ptr %29, align 8
  store <2 x i64> %31, ptr %29, align 8
  store <2 x i64> %32, ptr %30, align 8
  %33 = getelementptr inbounds i8, ptr %2, i64 96
  %34 = getelementptr inbounds i8, ptr %0, i64 96
  %35 = load i64, ptr %33, align 8
  %36 = load i64, ptr %34, align 8
  store i64 %36, ptr %33, align 8
  store i64 %35, ptr %34, align 8
  call void @_ZN6marisa6KeysetD2Ev(ptr noundef nonnull align 8 dereferenceable(104) %2) #11
  ret void
}